; Function Attrs: mustprogress uwtable
define void @_ZNK8proxygen19HTTPStaticErrorPage8generateEmjRKNSt7__cxx1112basic_stringIcSt11char_traitsIcESaIcEEESt10unique_ptrIN5folly5IOBufESt14default_deleteISB_EES8_(ptr noalias sret(%"struct.proxygen::HTTPErrorPage::Page") align 8 %agg.result, ptr noundef nonnull align 8 dereferenceable(48) %this, i64 %0, i32 %1, ptr nocapture nonnull readnone align 8 %2, ptr nocapture readnone %3, ptr nocapture nonnull readnone align 8 %4) unnamed_addr #0 align 2 personality ptr @__gxx_personality_v0 {
entry:
  %agg.tmp = alloca %"class.std::unique_ptr", align 8
  %contentType_ = getelementptr inbounds i8, ptr %this, i64 16
  %content_ = getelementptr inbounds i8, ptr %this, i64 8
  %5 = load ptr, ptr %content_, align 8
  call void @_ZNK5folly5IOBuf5cloneEv(ptr nonnull sret(%"class.std::unique_ptr") align 8 %agg.tmp, ptr noundef nonnull align 8 dereferenceable(56) %5)
  invoke void @_ZNSt7__cxx1112basic_stringIcSt11char_traitsIcESaIcEEC1ERKS4_(ptr noundef nonnull align 8 dereferenceable(32) %agg.result, ptr noundef nonnull align 8 dereferenceable(32) %contentType_)
          to label %_ZNSt10unique_ptrIN5folly5IOBufESt14default_deleteIS1_EED2Ev.exit unwind label %lpad

_ZNSt10unique_ptrIN5folly5IOBufESt14default_deleteIS1_EED2Ev.exit: ; preds = %entry
  %content.i = getelementptr inbounds i8, ptr %agg.result, i64 32
  %6 = load i64, ptr %agg.tmp, align 8
  store i64 %6, ptr %content.i, align 8
  ret void

lpad:                                             ; preds = %entry
  %7 = landingpad { ptr, i32 }
          cleanup
  call void @_ZNSt10unique_ptrIN5folly5IOBufESt14default_deleteIS1_EED2Ev(ptr noundef nonnull align 8 dereferenceable(8) %agg.tmp) #5
  resume { ptr, i32 } %7
}